; ModuleID = '29/1635.c'
source_filename = "29/1635.c"
target datalayout = "e-m:e-p270:32:32-p271:32:32-p272:64:64-i64:64-f80:128-n8:16:32:64-S128"
target triple = "x86_64-pc-linux-gnu"

@.str = private unnamed_addr constant [7 x i8] c"%.3lf\0A\00", align 1
@.str.1 = private unnamed_addr constant [3 x i8] c"%d\00", align 1

; Function Attrs: noinline nounwind uwtable
define dso_local double @FindFBN(i32 %0, i32* %1) #0 {
  %3 = alloca i32, align 4
  %4 = alloca i32*, align 8
  %5 = alloca i32, align 4
  %6 = alloca double, align 8
  store i32 %0, i32* %3, align 4
  store i32* %1, i32** %4, align 8
  store i32 0, i32* %5, align 4
  store double 0.000000e+00, double* %6, align 8
  %7 = load i32*, i32** %4, align 8
  %8 = getelementptr inbounds i32, i32* %7, i64 0
  store i32 1, i32* %8, align 4
  %9 = load i32*, i32** %4, align 8
  %10 = getelementptr inbounds i32, i32* %9, i64 1
  store i32 1, i32* %10, align 4
  store i32 2, i32* %5, align 4
  br label %11

11:                                               ; preds = %33, %2
  %12 = load i32, i32* %5, align 4
  %13 = load i32, i32* %3, align 4
  %14 = icmp slt i32 %12, %13
  br i1 %14, label %15, label %36

15:                                               ; preds = %11
  %16 = load i32*, i32** %4, align 8
  %17 = load i32, i32* %5, align 4
  %18 = sub nsw i32 %17, 1
  %19 = sext i32 %18 to i64
  %20 = getelementptr inbounds i32, i32* %16, i64 %19
  %21 = load i32, i32* %20, align 4
  %22 = load i32*, i32** %4, align 8
  %23 = load i32, i32* %5, align 4
  %24 = sub nsw i32 %23, 2
  %25 = sext i32 %24 to i64
  %26 = getelementptr inbounds i32, i32* %22, i64 %25
  %27 = load i32, i32* %26, align 4
  %28 = add nsw i32 %21, %27
  %29 = load i32*, i32** %4, align 8
  %30 = load i32, i32* %5, align 4
  %31 = sext i32 %30 to i64
  %32 = getelementptr inbounds i32, i32* %29, i64 %31
  store i32 %28, i32* %32, align 4
  br label %33

33:                                               ; preds = %15
  %34 = load i32, i32* %5, align 4
  %35 = add nsw i32 %34, 1
  store i32 %35, i32* %5, align 4
  br label %11

36:                                               ; preds = %11
  store i32 0, i32* %5, align 4
  br label %37

37:                                               ; preds = %60, %36
  %38 = load i32, i32* %5, align 4
  %39 = load i32, i32* %3, align 4
  %40 = sub nsw i32 %39, 2
  %41 = icmp slt i32 %38, %40
  br i1 %41, label %42, label %63

42:                                               ; preds = %37
  %43 = load i32*, i32** %4, align 8
  %44 = load i32, i32* %5, align 4
  %45 = add nsw i32 %44, 2
  %46 = sext i32 %45 to i64
  %47 = getelementptr inbounds i32, i32* %43, i64 %46
  %48 = load i32, i32* %47, align 4
  %49 = sitofp i32 %48 to double
  %50 = load i32*, i32** %4, align 8
  %51 = load i32, i32* %5, align 4
  %52 = add nsw i32 %51, 1
  %53 = sext i32 %52 to i64
  %54 = getelementptr inbounds i32, i32* %50, i64 %53
  %55 = load i32, i32* %54, align 4
  %56 = sitofp i32 %55 to double
  %57 = fdiv double %49, %56
  %58 = load double, double* %6, align 8
  %59 = fadd double %58, %57
  store double %59, double* %6, align 8
  br label %60

60:                                               ; preds = %42
  %61 = load i32, i32* %5, align 4
  %62 = add nsw i32 %61, 1
  store i32 %62, i32* %5, align 4
  br label %37

63:                                               ; preds = %37
  %64 = load double, double* %6, align 8
  %65 = call i32 (i8*, ...) @printf(i8* getelementptr inbounds ([7 x i8], [7 x i8]* @.str, i64 0, i64 0), double %64)
  %66 = load double, double* %6, align 8
  ret double %66
}

declare dso_local i32 @printf(i8*, ...) #1

; Function Attrs: noinline nounwind uwtable
define dso_local i32 @main(i32 %0, i8** %1) #0 {
  %3 = alloca i32, align 4
  %4 = alloca i32, align 4
  %5 = alloca i8**, align 8
  %6 = alloca i32, align 4
  %7 = alloca i32, align 4
  %8 = alloca i32*, align 8
  %9 = alloca i32**, align 8
  %10 = alloca double, align 8
  store i32 0, i32* %3, align 4
  store i32 %0, i32* %4, align 4
  store i8** %1, i8*** %5, align 8
  %11 = call i32 (i8*, ...) @__isoc99_scanf(i8* getelementptr inbounds ([3 x i8], [3 x i8]* @.str.1, i64 0, i64 0), i32* %6)
  %12 = load i32, i32* %6, align 4
  %13 = sext i32 %12 to i64
  %14 = mul i64 %13, 4
  %15 = call noalias i8* @malloc(i64 %14) #3
  %16 = bitcast i8* %15 to i32*
  store i32* %16, i32** %8, align 8
  %17 = load i32, i32* %6, align 4
  %18 = sext i32 %17 to i64
  %19 = mul i64 %18, 8
  %20 = call noalias i8* @malloc(i64 %19) #3
  %21 = bitcast i8* %20 to i32**
  store i32** %21, i32*** %9, align 8
  store i32 0, i32* %7, align 4
  br label %22

22:                                               ; preds = %32, %2
  %23 = load i32, i32* %7, align 4
  %24 = load i32, i32* %6, align 4
  %25 = icmp slt i32 %23, %24
  br i1 %25, label %26, label %35

26:                                               ; preds = %22
  %27 = load i32*, i32** %8, align 8
  %28 = load i32, i32* %7, align 4
  %29 = sext i32 %28 to i64
  %30 = getelementptr inbounds i32, i32* %27, i64 %29
  %31 = call i32 (i8*, ...) @__isoc99_scanf(i8* getelementptr inbounds ([3 x i8], [3 x i8]* @.str.1, i64 0, i64 0), i32* %30)
  br label %32

32:                                               ; preds = %26
  %33 = load i32, i32* %7, align 4
  %34 = add nsw i32 %33, 1
  store i32 %34, i32* %7, align 4
  br label %22

35:                                               ; preds = %22
  store i32 0, i32* %7, align 4
  br label %36

36:                                               ; preds = %66, %35
  %37 = load i32, i32* %7, align 4
  %38 = load i32, i32* %6, align 4
  %39 = icmp slt i32 %37, %38
  br i1 %39, label %40, label %69

40:                                               ; preds = %36
  %41 = load i32*, i32** %8, align 8
  %42 = load i32, i32* %7, align 4
  %43 = sext i32 %42 to i64
  %44 = getelementptr inbounds i32, i32* %41, i64 %43
  %45 = load i32, i32* %44, align 4
  %46 = add nsw i32 %45, 2
  %47 = sext i32 %46 to i64
  %48 = call noalias i8* @calloc(i64 %47, i64 4) #3
  %49 = bitcast i8* %48 to i32*
  %50 = load i32**, i32*** %9, align 8
  %51 = load i32, i32* %7, align 4
  %52 = sext i32 %51 to i64
  %53 = getelementptr inbounds i32*, i32** %50, i64 %52
  store i32* %49, i32** %53, align 8
  %54 = load i32*, i32** %8, align 8
  %55 = load i32, i32* %7, align 4
  %56 = sext i32 %55 to i64
  %57 = getelementptr inbounds i32, i32* %54, i64 %56
  %58 = load i32, i32* %57, align 4
  %59 = add nsw i32 %58, 2
  %60 = load i32**, i32*** %9, align 8
  %61 = load i32, i32* %7, align 4
  %62 = sext i32 %61 to i64
  %63 = getelementptr inbounds i32*, i32** %60, i64 %62
  %64 = load i32*, i32** %63, align 8
  %65 = call double @FindFBN(i32 %59, i32* %64)
  store double %65, double* %10, align 8
  br label %66

66:                                               ; preds = %40
  %67 = load i32, i32* %7, align 4
  %68 = add nsw i32 %67, 1
  store i32 %68, i32* %7, align 4
  br label %36

69:                                               ; preds = %36
  ret i32 0
}

declare dso_local i32 @__isoc99_scanf(i8*, ...) #1

; Function Attrs: nounwind
declare dso_local noalias i8* @malloc(i64) #2

; Function Attrs: nounwind
declare dso_local noalias i8* @calloc(i64, i64) #2


!llvm.module.flags = !{!0}
!llvm.ident = !{!1}

!0 = !{i32 1, !"wchar_size", i32 4}
!1 = !{!"clang version 10.0.0-4ubuntu1 "}
